; Function Attrs: mustprogress nofree nounwind willreturn memory(readwrite, inaccessiblemem: none) uwtable
define ptr @ulist_next_keyword_value_77(ptr noundef readonly captures(none) %0, ptr noundef writeonly %1, ptr noundef readonly captures(none) %2) local_unnamed_addr #9 {
  %4 = load i32, ptr %2, align 4, !tbaa !3
  %5 = icmp slt i32 %4, 1
  br i1 %5, label %6, label %ulist_getNext_77.exit.thread

6:                                                ; preds = %3
  %7 = getelementptr inbounds nuw i8, ptr %0, i64 8
  %8 = load ptr, ptr %7, align 8, !tbaa !25
  %9 = icmp eq ptr %8, null
  br i1 %9, label %ulist_getNext_77.exit.thread, label %10

10:                                               ; preds = %6
  %11 = load ptr, ptr %8, align 8, !tbaa !23
  %12 = icmp eq ptr %11, null
  br i1 %12, label %ulist_getNext_77.exit.thread, label %ulist_getNext_77.exit

ulist_getNext_77.exit:                            ; preds = %10
  %13 = getelementptr inbounds nuw i8, ptr %11, i64 8
  %14 = load ptr, ptr %13, align 8, !tbaa !17
  store ptr %14, ptr %8, align 8, !tbaa !23
  %15 = load ptr, ptr %11, align 8, !tbaa !7
  %16 = icmp ne ptr %15, null
  %17 = icmp ne ptr %1, null
  %or.cond = and i1 %17, %16
  br i1 %or.cond, label %18, label %ulist_getNext_77.exit.thread

18:                                               ; preds = %ulist_getNext_77.exit
  %19 = tail call i64 @strlen(ptr noundef nonnull dereferenceable(1) %15) #14
  %20 = trunc i64 %19 to i32
  store i32 %20, ptr %1, align 4, !tbaa !27
  br label %ulist_getNext_77.exit.thread

ulist_getNext_77.exit.thread:                     ; preds = %6, %10, %ulist_getNext_77.exit, %18, %3
  %.0 = phi ptr [ null, %3 ], [ %15, %18 ], [ %15, %ulist_getNext_77.exit ], [ null, %10 ], [ null, %6 ]
  ret ptr %.0
}